target datalayout = "e-m:e-p270:32:32-p271:32:32-p272:64:64-i64:64-i128:128-f80:128-n8:16:32:64-S128"
target triple = "x86_64-pc-linux-gnu"

%struct._zval_struct = type { %union._zend_value, %union.anon.0, %union.anon.3 }
%union._zend_value = type { i64 }
%union.anon.0 = type { i32 }
%union.anon.3 = type { i32 }
%struct._zend_array = type { %struct._zend_refcounted_h, %union.anon.5, i32, %union.anon.7, i32, i32, i32, i32, i64, ptr }
%struct._zend_refcounted_h = type { i32, %union.anon }
%union.anon = type { i32 }
%union.anon.5 = type { i32 }
%union.anon.7 = type { ptr }
%struct.zend_type = type { ptr, i32 }
%struct._zend_object = type { %struct._zend_refcounted_h, i32, ptr, ptr, ptr, [1 x %struct._zval_struct] }
%struct._zend_class_entry = type { i8, ptr, %union.anon.4, i32, i32, i32, i32, ptr, ptr, ptr, %struct._zend_array, %struct._zend_array, %struct._zend_array, ptr, ptr, ptr, ptr, ptr, ptr, ptr, ptr, ptr, ptr, ptr, ptr, ptr, ptr, ptr, ptr, ptr, ptr, ptr, %union.anon.8, ptr, ptr, ptr, ptr, i32, i32, %union.anon.9, ptr, ptr, ptr, ptr, i32, ptr, ptr, %union.anon.10 }
%union.anon.4 = type { ptr }
%union.anon.8 = type { ptr }
%union.anon.9 = type { ptr }
%union.anon.10 = type { %struct.anon.11 }
%struct.anon.11 = type { ptr, i32, i32 }
%struct._zend_property_info = type { i32, i32, ptr, ptr, ptr, ptr, %struct.zend_type }
%struct._Bucket = type { %struct._zval_struct, i64, ptr }
%struct._zend_string = type { %struct._zend_refcounted_h, i64, i64, [1 x i8] }

; Function Attrs: nounwind uwtable
define void @rebuild_object_properties(ptr noundef %0) #0 {
  %2 = alloca ptr, align 8
  %3 = alloca ptr, align 8
  %4 = alloca i32, align 4
  %5 = alloca i32, align 4
  %6 = alloca ptr, align 8
  %7 = alloca i32, align 4
  %8 = alloca ptr, align 8
  %9 = alloca ptr, align 8
  %10 = alloca ptr, align 8
  %11 = alloca i32, align 4
  %12 = alloca i32, align 4
  %13 = alloca ptr, align 8
  %14 = alloca ptr, align 8
  %15 = alloca ptr, align 8
  %16 = alloca ptr, align 8
  %17 = alloca ptr, align 8
  %18 = alloca i32, align 4
  store ptr %0, ptr %15, align 8
  %19 = load ptr, ptr %15, align 8
  %20 = getelementptr inbounds %struct._zend_object, ptr %19, i32 0, i32 4
  %21 = load ptr, ptr %20, align 8
  %22 = icmp ne ptr %21, null
  br i1 %22, label %209, label %23

23:                                               ; preds = %1
  %24 = load ptr, ptr %15, align 8
  %25 = getelementptr inbounds %struct._zend_object, ptr %24, i32 0, i32 2
  %26 = load ptr, ptr %25, align 8
  store ptr %26, ptr %17, align 8
  %27 = load ptr, ptr %17, align 8
  %28 = getelementptr inbounds %struct._zend_class_entry, ptr %27, i32 0, i32 5
  %29 = load i32, ptr %28, align 8
  %30 = call i1 @llvm.is.constant.i32(i32 %29)
  br i1 %30, label %31, label %45

31:                                               ; preds = %23
  %32 = load ptr, ptr %17, align 8
  %33 = getelementptr inbounds %struct._zend_class_entry, ptr %32, i32 0, i32 5
  %34 = load i32, ptr %33, align 8
  %35 = icmp ule i32 %34, 8
  br i1 %35, label %36, label %38

36:                                               ; preds = %31
  %37 = call ptr @_zend_new_array_0()
  br label %43

38:                                               ; preds = %31
  %39 = load ptr, ptr %17, align 8
  %40 = getelementptr inbounds %struct._zend_class_entry, ptr %39, i32 0, i32 5
  %41 = load i32, ptr %40, align 8
  %42 = call ptr @_zend_new_array(i32 noundef %41)
  br label %43

43:                                               ; preds = %38, %36
  %44 = phi ptr [ %37, %36 ], [ %42, %38 ]
  br label %50

45:                                               ; preds = %23
  %46 = load ptr, ptr %17, align 8
  %47 = getelementptr inbounds %struct._zend_class_entry, ptr %46, i32 0, i32 5
  %48 = load i32, ptr %47, align 8
  %49 = call ptr @_zend_new_array(i32 noundef %48)
  br label %50

50:                                               ; preds = %45, %43
  %51 = phi ptr [ %44, %43 ], [ %49, %45 ]
  %52 = load ptr, ptr %15, align 8
  %53 = getelementptr inbounds %struct._zend_object, ptr %52, i32 0, i32 4
  store ptr %51, ptr %53, align 8
  %54 = load ptr, ptr %17, align 8
  %55 = getelementptr inbounds %struct._zend_class_entry, ptr %54, i32 0, i32 5
  %56 = load i32, ptr %55, align 8
  %57 = icmp ne i32 %56, 0
  br i1 %57, label %58, label %208

58:                                               ; preds = %50
  %59 = load ptr, ptr %15, align 8
  %60 = getelementptr inbounds %struct._zend_object, ptr %59, i32 0, i32 4
  %61 = load ptr, ptr %60, align 8
  call void @zend_hash_real_init_mixed(ptr noundef %61)
  store i32 0, ptr %18, align 4
  br label %62

62:                                               ; preds = %204, %58
  %63 = load i32, ptr %18, align 4
  %64 = load ptr, ptr %17, align 8
  %65 = getelementptr inbounds %struct._zend_class_entry, ptr %64, i32 0, i32 5
  %66 = load i32, ptr %65, align 8
  %67 = icmp slt i32 %63, %66
  br i1 %67, label %68, label %207

68:                                               ; preds = %62
  %69 = load ptr, ptr %17, align 8
  %70 = getelementptr inbounds %struct._zend_class_entry, ptr %69, i32 0, i32 15
  %71 = load ptr, ptr %70, align 8
  %72 = load i32, ptr %18, align 4
  %73 = sext i32 %72 to i64
  %74 = getelementptr inbounds ptr, ptr %71, i64 %73
  %75 = load ptr, ptr %74, align 8
  store ptr %75, ptr %16, align 8
  %76 = load ptr, ptr %16, align 8
  %77 = icmp ne ptr %76, null
  br i1 %77, label %79, label %78

78:                                               ; preds = %68
  br label %204

79:                                               ; preds = %68
  %80 = load ptr, ptr %15, align 8
  %81 = load ptr, ptr %16, align 8
  %82 = getelementptr inbounds %struct._zend_property_info, ptr %81, i32 0, i32 0
  %83 = load i32, ptr %82, align 8
  %84 = zext i32 %83 to i64
  %85 = getelementptr inbounds i8, ptr %80, i64 %84
  store ptr %85, ptr %14, align 8
  %86 = load ptr, ptr %14, align 8
  %87 = getelementptr inbounds %struct._zval_struct, ptr %86, i32 0, i32 1
  %88 = load i8, ptr %87, align 8
  %89 = zext i8 %88 to i32
  %90 = icmp eq i32 %89, 0
  %91 = xor i1 %90, true
  %92 = xor i1 %91, true
  %93 = zext i1 %92 to i32
  %94 = sext i32 %93 to i64
  %95 = icmp ne i64 %94, 0
  br i1 %95, label %96, label %103

96:                                               ; preds = %79
  %97 = load ptr, ptr %15, align 8
  %98 = getelementptr inbounds %struct._zend_object, ptr %97, i32 0, i32 4
  %99 = load ptr, ptr %98, align 8
  %100 = getelementptr inbounds %struct._zend_array, ptr %99, i32 0, i32 1
  %101 = load i32, ptr %100, align 8
  %102 = or i32 %101, 32
  store i32 %102, ptr %100, align 8
  br label %103

103:                                              ; preds = %96, %79
  %104 = load ptr, ptr %15, align 8
  %105 = getelementptr inbounds %struct._zend_object, ptr %104, i32 0, i32 4
  %106 = load ptr, ptr %105, align 8
  %107 = load ptr, ptr %16, align 8
  %108 = getelementptr inbounds %struct._zend_property_info, ptr %107, i32 0, i32 2
  %109 = load ptr, ptr %108, align 8
  %110 = load ptr, ptr %15, align 8
  %111 = load ptr, ptr %16, align 8
  %112 = getelementptr inbounds %struct._zend_property_info, ptr %111, i32 0, i32 0
  %113 = load i32, ptr %112, align 8
  %114 = zext i32 %113 to i64
  %115 = getelementptr inbounds i8, ptr %110, i64 %114
  store ptr %106, ptr %8, align 8
  store ptr %109, ptr %9, align 8
  store ptr %115, ptr %10, align 8
  %116 = load ptr, ptr %8, align 8
  %117 = getelementptr inbounds %struct._zend_array, ptr %116, i32 0, i32 4
  %118 = load i32, ptr %117, align 8
  %119 = add i32 %118, 1
  store i32 %119, ptr %117, align 8
  store i32 %118, ptr %11, align 4
  %120 = load ptr, ptr %8, align 8
  %121 = getelementptr inbounds %struct._zend_array, ptr %120, i32 0, i32 3
  %122 = load ptr, ptr %121, align 8
  %123 = load i32, ptr %11, align 4
  %124 = zext i32 %123 to i64
  %125 = getelementptr inbounds %struct._Bucket, ptr %122, i64 %124
  store ptr %125, ptr %13, align 8
  %126 = load ptr, ptr %10, align 8
  %127 = load ptr, ptr %13, align 8
  store ptr %126, ptr %127, align 8
  %128 = load ptr, ptr %13, align 8
  %129 = getelementptr inbounds %struct._zval_struct, ptr %128, i32 0, i32 1
  store i32 12, ptr %129, align 8
  %130 = load ptr, ptr %9, align 8
  %131 = getelementptr inbounds %struct._zend_refcounted_h, ptr %130, i32 0, i32 1
  %132 = load i32, ptr %131, align 4
  store i32 %132, ptr %7, align 4
  %133 = load i32, ptr %7, align 4
  %134 = and i32 %133, 1008
  %135 = and i32 %134, 64
  %136 = icmp ne i32 %135, 0
  br i1 %136, label %167, label %137

137:                                              ; preds = %103
  %138 = load ptr, ptr %8, align 8
  %139 = getelementptr inbounds %struct._zend_array, ptr %138, i32 0, i32 1
  %140 = load i32, ptr %139, align 8
  %141 = and i32 %140, -17
  store i32 %141, ptr %139, align 8
  %142 = load ptr, ptr %9, align 8
  store ptr %142, ptr %6, align 8
  %143 = load ptr, ptr %6, align 8
  %144 = getelementptr inbounds %struct._zend_refcounted_h, ptr %143, i32 0, i32 1
  %145 = load i32, ptr %144, align 4
  store i32 %145, ptr %4, align 4
  %146 = load i32, ptr %4, align 4
  %147 = and i32 %146, 1008
  %148 = and i32 %147, 64
  %149 = icmp ne i32 %148, 0
  br i1 %149, label %155, label %150

150:                                              ; preds = %137
  %151 = load ptr, ptr %6, align 8
  store ptr %151, ptr %3, align 8
  %152 = load ptr, ptr %3, align 8
  %153 = load i32, ptr %152, align 4
  %154 = add i32 %153, 1
  store i32 %154, ptr %152, align 4
  store i32 %154, ptr %5, align 4
  br label %156

155:                                              ; preds = %137
  store i32 1, ptr %5, align 4
  br label %156

156:                                              ; preds = %155, %150
  %157 = load ptr, ptr %9, align 8
  store ptr %157, ptr %2, align 8
  %158 = load ptr, ptr %2, align 8
  %159 = getelementptr inbounds %struct._zend_string, ptr %158, i32 0, i32 1
  %160 = load i64, ptr %159, align 8
  %161 = icmp ne i64 %160, 0
  br i1 %161, label %162, label %163

162:                                              ; preds = %156
  br label %166

163:                                              ; preds = %156
  %164 = load ptr, ptr %2, align 8
  %165 = call i64 @zend_string_hash_func(ptr noundef %164) #10
  br label %166

166:                                              ; preds = %163, %162
  br label %167

167:                                              ; preds = %166, %103
  %168 = load ptr, ptr %9, align 8
  %169 = load ptr, ptr %13, align 8
  %170 = getelementptr inbounds %struct._Bucket, ptr %169, i32 0, i32 2
  store ptr %168, ptr %170, align 8
  %171 = load ptr, ptr %9, align 8
  %172 = getelementptr inbounds %struct._zend_string, ptr %171, i32 0, i32 1
  %173 = load i64, ptr %172, align 8
  %174 = load ptr, ptr %13, align 8
  %175 = getelementptr inbounds %struct._Bucket, ptr %174, i32 0, i32 1
  store i64 %173, ptr %175, align 8
  %176 = load ptr, ptr %13, align 8
  %177 = getelementptr inbounds %struct._Bucket, ptr %176, i32 0, i32 1
  %178 = load i64, ptr %177, align 8
  %179 = trunc i64 %178 to i32
  %180 = load ptr, ptr %8, align 8
  %181 = getelementptr inbounds %struct._zend_array, ptr %180, i32 0, i32 2
  %182 = load i32, ptr %181, align 4
  %183 = or i32 %179, %182
  store i32 %183, ptr %12, align 4
  %184 = load ptr, ptr %8, align 8
  %185 = getelementptr inbounds %struct._zend_array, ptr %184, i32 0, i32 3
  %186 = load ptr, ptr %185, align 8
  %187 = load i32, ptr %12, align 4
  %188 = sext i32 %187 to i64
  %189 = getelementptr inbounds i32, ptr %186, i64 %188
  %190 = load i32, ptr %189, align 4
  %191 = load ptr, ptr %13, align 8
  %192 = getelementptr inbounds %struct._zval_struct, ptr %191, i32 0, i32 2
  store i32 %190, ptr %192, align 4
  %193 = load i32, ptr %11, align 4
  %194 = load ptr, ptr %8, align 8
  %195 = getelementptr inbounds %struct._zend_array, ptr %194, i32 0, i32 3
  %196 = load ptr, ptr %195, align 8
  %197 = load i32, ptr %12, align 4
  %198 = sext i32 %197 to i64
  %199 = getelementptr inbounds i32, ptr %196, i64 %198
  store i32 %193, ptr %199, align 4
  %200 = load ptr, ptr %8, align 8
  %201 = getelementptr inbounds %struct._zend_array, ptr %200, i32 0, i32 5
  %202 = load i32, ptr %201, align 4
  %203 = add i32 %202, 1
  store i32 %203, ptr %201, align 4
  br label %204

204:                                              ; preds = %167, %78
  %205 = load i32, ptr %18, align 4
  %206 = add nsw i32 %205, 1
  store i32 %206, ptr %18, align 4
  br label %62

207:                                              ; preds = %62
  br label %208

208:                                              ; preds = %207, %50
  br label %209

209:                                              ; preds = %208, %1
  ret void
}