; Function Attrs: nounwind uwtable
define void @rebuild_object_properties(ptr noundef %0) local_unnamed_addr #0 {
  %2 = getelementptr inbounds i8, ptr %0, i64 32
  %3 = load ptr, ptr %2, align 8
  %.not = icmp eq ptr %3, null
  br i1 %.not, label %4, label %.loopexit

4:                                                ; preds = %1
  %5 = getelementptr inbounds i8, ptr %0, i64 16
  %6 = load ptr, ptr %5, align 8
  %7 = getelementptr inbounds i8, ptr %6, i64 32
  %8 = load i32, ptr %7, align 8
  %9 = tail call ptr @_zend_new_array(i32 noundef %8) #15
  store ptr %9, ptr %2, align 8
  %10 = load i32, ptr %7, align 8
  %.not54 = icmp eq i32 %10, 0
  br i1 %.not54, label %.loopexit, label %11

11:                                               ; preds = %4
  tail call void @zend_hash_real_init_mixed(ptr noundef %9) #15
  %invariant.gep = getelementptr inbounds i8, ptr %0, i64 8
  %12 = load i32, ptr %7, align 8
  %13 = icmp sgt i32 %12, 0
  br i1 %13, label %.lr.ph, label %.loopexit

.lr.ph:                                           ; preds = %11
  %14 = getelementptr inbounds i8, ptr %6, i64 248
  br label %15

15:                                               ; preds = %.lr.ph, %79
  %16 = phi i32 [ %12, %.lr.ph ], [ %80, %79 ]
  %indvars.iv = phi i64 [ 0, %.lr.ph ], [ %indvars.iv.next, %79 ]
  %17 = load ptr, ptr %14, align 8
  %18 = getelementptr inbounds ptr, ptr %17, i64 %indvars.iv
  %19 = load ptr, ptr %18, align 8
  %.not55 = icmp eq ptr %19, null
  br i1 %.not55, label %79, label %20

20:                                               ; preds = %15
  %21 = load i32, ptr %19, align 8
  %22 = zext i32 %21 to i64
  %gep = getelementptr inbounds i8, ptr %invariant.gep, i64 %22
  %23 = load i8, ptr %gep, align 8
  %24 = icmp eq i8 %23, 0
  br i1 %24, label %25, label %30

25:                                               ; preds = %20
  %26 = load ptr, ptr %2, align 8
  %27 = getelementptr inbounds i8, ptr %26, i64 8
  %28 = load i32, ptr %27, align 8
  %29 = or i32 %28, 32
  store i32 %29, ptr %27, align 8
  %.pre = load i32, ptr %19, align 8
  %.pre62 = zext i32 %.pre to i64
  br label %30

30:                                               ; preds = %25, %20
  %.pre-phi = phi i64 [ %.pre62, %25 ], [ %22, %20 ]
  %31 = load ptr, ptr %2, align 8
  %32 = getelementptr inbounds i8, ptr %19, i64 8
  %33 = load ptr, ptr %32, align 8
  %34 = getelementptr inbounds i8, ptr %0, i64 %.pre-phi
  %35 = getelementptr inbounds i8, ptr %31, i64 24
  %36 = load i32, ptr %35, align 8
  %37 = add i32 %36, 1
  store i32 %37, ptr %35, align 8
  %38 = getelementptr inbounds i8, ptr %31, i64 16
  %39 = load ptr, ptr %38, align 8
  %40 = zext i32 %36 to i64
  %41 = getelementptr inbounds %struct._Bucket, ptr %39, i64 %40
  store ptr %34, ptr %41, align 8
  %42 = getelementptr inbounds i8, ptr %41, i64 8
  store i32 12, ptr %42, align 8
  %43 = getelementptr inbounds i8, ptr %33, i64 4
  %44 = load i32, ptr %43, align 4
  %45 = and i32 %44, 64
  %.not56 = icmp eq i32 %45, 0
  br i1 %.not56, label %46, label %60

46:                                               ; preds = %30
  %47 = getelementptr inbounds i8, ptr %31, i64 8
  %48 = load i32, ptr %47, align 8
  %49 = and i32 %48, -17
  store i32 %49, ptr %47, align 8
  %50 = load i32, ptr %43, align 4
  %51 = and i32 %50, 64
  %.not57 = icmp eq i32 %51, 0
  br i1 %.not57, label %52, label %55

52:                                               ; preds = %46
  %53 = load i32, ptr %33, align 4
  %54 = add i32 %53, 1
  store i32 %54, ptr %33, align 4
  br label %55

55:                                               ; preds = %46, %52
  %56 = getelementptr inbounds i8, ptr %33, i64 8
  %57 = load i64, ptr %56, align 8
  %.not58 = icmp eq i64 %57, 0
  br i1 %.not58, label %58, label %60

58:                                               ; preds = %55
  %59 = tail call i64 @zend_string_hash_func(ptr noundef nonnull %33) #15
  br label %60

60:                                               ; preds = %58, %55, %30
  %61 = getelementptr inbounds i8, ptr %41, i64 24
  store ptr %33, ptr %61, align 8
  %62 = getelementptr inbounds i8, ptr %33, i64 8
  %63 = load i64, ptr %62, align 8
  %64 = getelementptr inbounds i8, ptr %41, i64 16
  store i64 %63, ptr %64, align 8
  %65 = trunc i64 %63 to i32
  %66 = getelementptr inbounds i8, ptr %31, i64 12
  %67 = load i32, ptr %66, align 4
  %68 = or i32 %67, %65
  %69 = load ptr, ptr %38, align 8
  %70 = sext i32 %68 to i64
  %71 = getelementptr inbounds i32, ptr %69, i64 %70
  %72 = load i32, ptr %71, align 4
  %73 = getelementptr inbounds i8, ptr %41, i64 12
  store i32 %72, ptr %73, align 4
  %74 = load ptr, ptr %38, align 8
  %75 = getelementptr inbounds i32, ptr %74, i64 %70
  store i32 %36, ptr %75, align 4
  %76 = getelementptr inbounds i8, ptr %31, i64 28
  %77 = load i32, ptr %76, align 4
  %78 = add i32 %77, 1
  store i32 %78, ptr %76, align 4
  %.pre61 = load i32, ptr %7, align 8
  br label %79

79:                                               ; preds = %15, %60
  %80 = phi i32 [ %16, %15 ], [ %.pre61, %60 ]
  %indvars.iv.next = add nuw nsw i64 %indvars.iv, 1
  %81 = sext i32 %80 to i64
  %82 = icmp slt i64 %indvars.iv.next, %81
  br i1 %82, label %15, label %.loopexit

.loopexit:                                        ; preds = %79, %11, %4, %1
  ret void
}